Certificate:
    Data:
        Version: 3 (0x2)
        Serial Number:
            23:14:08:b6:eb:aa:42:dc
        Signature Algorithm: dsaWithSHA1
        Issuer: CN=DemoRootCA2, OU=EJBCA, O=SignServer Sample, C=SE
        Validity
            Not Before: Nov 10 11:22:11 2009 GMT
            Not After : Nov 10 11:22:11 2019 GMT
        Subject: CN=xmlsigner4
        Subject Public Key Info:
            Public Key Algorithm: dsaEncryption
            DSA Public Key:
                pub: 
                    00:d4:25:df:4f:4d:28:95:23:9a:a6:66:65:e3:34:
                    f5:fe:d5:10:cc:ec:ed:b5:0f:c3:08:1f:2a:63:01:
                    f9:7c:a0:f8:73:0d:4e:d8:8b:ad:76:7b:4e:3f:e3:
                    dd:f9:0e:8f:57:aa:ff:71:c9:26:a6:f3:b5:db:fb:
                    0c:a7:15:8e:99:8d:68:8a:8e:38:2f:c3:e5:ef:a3:
                    16:a8:a8:81:79:c0:2c:36:0c:63:5e:45:e2:15:d2:
                    7c:96:58:53:8f:d6:7c:bd:26:0f:f1:35:32:63:85:
                    1a:21:39:b7:a1:93:a9:eb:47:9a:98:52:fd:dc:b8:
                    ef:a4:e9:2b:0e:3e:e8:ad:78
                P:   
                    00:fd:7f:53:81:1d:75:12:29:52:df:4a:9c:2e:ec:
                    e4:e7:f6:11:b7:52:3c:ef:44:00:c3:1e:3f:80:b6:
                    51:26:69:45:5d:40:22:51:fb:59:3d:8d:58:fa:bf:
                    c5:f5:ba:30:f6:cb:9b:55:6c:d7:81:3b:80:1d:34:
                    6f:f2:66:60:b7:6b:99:50:a5:a4:9f:9f:e8:04:7b:
                    10:22:c2:4f:bb:a9:d7:fe:b7:c6:1b:f8:3b:57:e7:
                    c6:a8:a6:15:0f:04:fb:83:f6:d3:c5:1e:c3:02:35:
                    54:13:5a:16:91:32:f6:75:f3:ae:2b:61:d7:2a:ef:
                    f2:22:03:19:9d:d1:48:01:c7
                Q:   
                    00:97:60:50:8f:15:23:0b:cc:b2:92:b9:82:a2:eb:
                    84:0b:f0:58:1c:f5
                G:   
                    00:f7:e1:a0:85:d6:9b:3d:de:cb:bc:ab:5c:36:b8:
                    57:b9:79:94:af:bb:fa:3a:ea:82:f9:57:4c:0b:3d:
                    07:82:67:51:59:57:8e:ba:d4:59:4f:e6:71:07:10:
                    81:80:b4:49:16:71:23:e8:4c:28:16:13:b7:cf:09:
                    32:8c:c8:a6:e1:3c:16:7a:8b:54:7c:8d:28:e0:a3:
                    ae:1e:2b:b3:a6:75:91:6e:a3:7f:0b:fa:21:35:62:
                    f1:fb:62:7a:01:24:3b:cc:a4:f1:be:a8:51:90:89:
                    a8:83:df:e1:5a:e5:9f:06:92:8b:66:5e:80:7b:55:
                    25:64:01:4c:3b:fe:cf:49:2a
        X509v3 extensions:
            X509v3 Subject Key Identifier: 
                6A:12:E6:DB:28:CC:1A:A6:76:45:7A:A8:14:35:11:44:90:A1:A9:5A
            X509v3 Basic Constraints: critical
                CA:FALSE
            X509v3 Authority Key Identifier: 
                keyid:49:DF:15:2E:CA:5E:99:AE:80:F7:94:59:B7:9F:0F:C0:84:23:DE:25

            X509v3 Key Usage: critical
                Digital Signature, Non Repudiation
    Signature Algorithm: dsaWithSHA1
        30:2c:02:14:39:e9:e3:5d:df:62:5d:f6:2d:7b:c8:fc:5a:c7:
        2f:17:e8:e6:15:ba:02:14:6f:df:1c:73:97:4e:d0:0d:d2:ff:
        a1:60:ad:5b:4a:ec:b6:6b:50:9a
-----BEGIN CERTIFICATE-----
MIIDADCCAsCgAwIBAgIIIxQItuuqQtwwCQYHKoZIzjgEAzBPMRQwEgYDVQQDDAtE
ZW1vUm9vdENBMjEOMAwGA1UECwwFRUpCQ0ExGjAYBgNVBAoMEVNpZ25TZXJ2ZXIg
U2FtcGxlMQswCQYDVQQGEwJTRTAeFw0wOTExMTAxMTIyMTFaFw0xOTExMTAxMTIy
MTFaMBUxEzARBgNVBAMMCnhtbHNpZ25lcjQwggG4MIIBLAYHKoZIzjgEATCCAR8C
gYEA/X9TgR11EilS30qcLuzk5/YRt1I870QAwx4/gLZRJmlFXUAiUftZPY1Y+r/F
9bow9subVWzXgTuAHTRv8mZgt2uZUKWkn5/oBHsQIsJPu6nX/rfGG/g7V+fGqKYV
DwT7g/bTxR7DAjVUE1oWkTL2dfOuK2HXKu/yIgMZndFIAccCFQCXYFCPFSMLzLKS
uYKi64QL8Fgc9QKBgQD34aCF1ps93su8q1w2uFe5eZSvu/o66oL5V0wLPQeCZ1FZ
V4661FlP5nEHEIGAtEkWcSPoTCgWE7fPCTKMyKbhPBZ6i1R8jSjgo64eK7OmdZFu
o38L+iE1YvH7YnoBJDvMpPG+qFGQiaiD3+Fa5Z8GkotmXoB7VSVkAUw7/s9JKgOB
hQACgYEA1CXfT00olSOapmZl4zT1/tUQzOzttQ/DCB8qYwH5fKD4cw1O2IutdntO
P+Pd+Q6PV6r/cckmpvO12/sMpxWOmY1oio44L8Pl76MWqKiBecAsNgxjXkXiFdJ8
llhTj9Z8vSYP8TUyY4UaITm3oZOp60eamFL93LjvpOkrDj7orXijYDBeMB0GA1Ud
DgQWBBRqEubbKMwapnZFeqgUNRFEkKGpWjAMBgNVHRMBAf8EAjAAMB8GA1UdIwQY
MBaAFEnfFS7KXpmugPeUWbefD8CEI94lMA4GA1UdDwEB/wQEAwIGwDAJBgcqhkjO
OAQDAy8AMCwCFDnp413fYl32LXvI/FrHLxfo5hW6AhRv3xxzl07QDdL/oWCtW0rs
tmtQmg==
-----END CERTIFICATE-----
