Certificate:
    Data:
        Version: 3 (0x2)
        Serial Number:
            05:3f:69:92:d0:81:24:8a
        Signature Algorithm: sha256WithRSAEncryption
        Issuer: CN=DSS Root CA 10, OU=Testing, O=SignServer, C=SE
        Validity
            Not Before: May 27 09:50:37 2011 GMT
            Not After : May 27 09:50:37 2021 GMT
        Subject: CN=Signer 2, OU=Testing, O=SignServer, C=SE
        Subject Public Key Info:
            Public Key Algorithm: rsaEncryption
            RSA Public Key: (2048 bit)
                Modulus (2048 bit):
                    00:a2:42:49:3d:59:0f:ae:7d:da:e7:9a:ce:e8:0d:
                    c1:9d:b7:b4:9d:f2:51:f4:80:d2:23:c0:26:16:16:
                    04:04:ba:0a:7e:26:af:c7:4a:0c:75:b7:43:7b:e0:
                    e4:c2:fe:fc:c4:19:20:6e:3f:ff:da:58:4c:09:59:
                    ac:b3:dd:11:cd:8f:9d:d1:dd:2b:83:64:8f:f3:2f:
                    c3:b3:2c:70:ae:2a:82:7e:e3:3b:96:79:60:bd:21:
                    c2:63:0a:17:f3:eb:83:33:bc:c8:e7:7c:a4:29:58:
                    6a:23:7b:6d:c8:53:da:f1:1b:23:7c:53:88:5a:a7:
                    f7:f7:ef:ac:25:48:5e:5b:88:fd:c7:da:ee:b5:fe:
                    aa:82:d8:f1:39:83:d0:c0:3c:a0:4f:d7:08:56:93:
                    3b:65:e8:61:a9:56:25:71:06:51:b2:9a:cc:83:9e:
                    6c:d9:23:7f:6b:bf:24:ac:05:b9:d6:6b:28:20:38:
                    1d:f7:ec:db:b0:8b:f3:b8:6a:82:b2:93:b7:00:df:
                    1b:da:6f:2d:94:74:e5:03:f1:38:fb:73:99:91:2a:
                    a0:a7:1f:05:48:a2:1f:6c:a5:1a:f3:ae:a9:47:3a:
                    6d:bd:c6:cb:ff:0a:45:c5:89:32:c6:a7:01:ea:8e:
                    c2:16:75:9b:af:78:14:3e:9c:fc:2a:3b:98:ef:2a:
                    4c:9b
                Exponent: 65537 (0x10001)
        X509v3 extensions:
            X509v3 Subject Key Identifier: 
                4A:44:7F:07:BD:62:74:99:91:F1:D7:99:CE:20:40:A9:2C:D6:CE:13
            X509v3 Basic Constraints: critical
                CA:FALSE
            X509v3 Authority Key Identifier: 
                keyid:20:7A:21:DE:E8:AD:BB:02:A8:FB:71:58:A4:09:62:B9:D8:58:05:A2

            X509v3 Key Usage: critical
                Digital Signature, Non Repudiation, Key Encipherment
            X509v3 Extended Key Usage: 
                TLS Web Client Authentication, E-mail Protection
    Signature Algorithm: sha256WithRSAEncryption
        3e:a5:0b:88:d5:09:99:2d:d8:5e:09:59:9c:fa:4d:61:e7:7b:
        88:bf:da:41:9c:12:92:6c:a9:f4:fc:25:73:9e:69:4f:3a:92:
        48:c3:0b:b3:70:b7:c2:7a:c6:ba:82:41:ba:05:a6:c7:27:03:
        2b:53:f4:a9:66:e5:ae:ac:7c:5d:10:a7:ba:7d:2f:e7:81:89:
        c8:8c:52:39:47:42:a0:97:57:33:aa:af:ed:5c:38:c6:12:9b:
        f6:c7:4b:59:10:2a:8b:16:b9:02:ed:af:a0:8d:72:4f:13:c4:
        c3:8f:c9:ef:8b:8d:29:70:a1:6f:bf:6b:5b:46:2c:98:ac:83:
        c8:c5:e7:eb:5e:69:13:f7:51:77:cd:42:9b:40:bd:22:5b:b0:
        28:b7:fd:0a:96:3f:a2:e2:e8:af:a8:5b:b7:e7:d3:b2:98:9d:
        82:e7:02:4e:c9:9a:8f:3e:cc:54:bd:37:40:d8:46:4d:5f:80:
        6c:78:5b:c9:44:49:af:c7:50:80:81:99:00:35:90:f8:43:39:
        f5:6f:fd:16:ad:77:d8:b1:b5:80:e1:c0:5e:4d:14:7b:be:31:
        9a:8c:17:3f:a0:6a:36:c2:48:b4:74:99:2c:22:65:3c:6f:67:
        4b:11:fd:e7:dc:cf:5d:7f:18:85:10:09:e5:dd:82:83:99:3d:
        b5:c1:a9:8e:fe:14:5d:5a:49:53:fb:b2:2f:cf:a4:85:9d:6e:
        87:9d:e4:f8:d8:83:0d:90:2e:24:dd:dd:22:d1:8d:bf:ab:b5:
        cd:e6:bb:cc:15:b1:f5:9f:a3:b8:35:4a:87:22:4c:db:0a:d5:
        65:8d:5e:be:5c:44:a6:32:c7:b2:24:62:a5:63:a4:43:ee:39:
        e1:10:9a:ba:74:63:c6:4a:be:61:e9:20:28:85:89:63:b3:96:
        35:7b:f0:f2:83:6e:37:b0:fe:f9:64:ee:c7:7c:e6:0f:77:64:
        a9:fa:9e:51:e6:cc:d6:3a:e6:69:e5:4b:4b:14:18:6e:c2:52:
        38:d4:b9:e9:b8:bf:b8:b7:6e:4b:8c:d1:e8:1a:1c:d9:0a:5d:
        6b:c6:a7:12:04:65:4a:2c:6d:ac:37:45:d5:5d:fa:ab:b7:f1:
        32:90:e0:15:d1:65:be:4b:bd:ad:44:f2:3b:dd:ea:b4:01:e4:
        49:45:17:f3:71:98:9e:aa:e8:ba:f7:87:8f:d7:41:21:87:f8:
        a2:3a:94:36:f3:27:e1:b1:60:ef:30:8c:6e:f2:8f:28:2b:e8:
        69:81:0b:c2:c1:e7:0f:ee:bb:a9:76:a3:3d:39:06:27:78:f6:
        f9:dd:d7:7c:4e:de:21:c3:85:a1:bd:25:82:ff:d6:8d:7c:55:
        dc:de:3c:1b:1d:5c:b9:47
-----BEGIN CERTIFICATE-----
MIIElTCCAn2gAwIBAgIIBT9pktCBJIowDQYJKoZIhvcNAQELBQAwTTEXMBUGA1UE
AwwORFNTIFJvb3QgQ0EgMTAxEDAOBgNVBAsMB1Rlc3RpbmcxEzARBgNVBAoMClNp
Z25TZXJ2ZXIxCzAJBgNVBAYTAlNFMB4XDTExMDUyNzA5NTAzN1oXDTIxMDUyNzA5
NTAzN1owRzERMA8GA1UEAwwIU2lnbmVyIDIxEDAOBgNVBAsMB1Rlc3RpbmcxEzAR
BgNVBAoMClNpZ25TZXJ2ZXIxCzAJBgNVBAYTAlNFMIIBIjANBgkqhkiG9w0BAQEF
AAOCAQ8AMIIBCgKCAQEAokJJPVkPrn3a55rO6A3Bnbe0nfJR9IDSI8AmFhYEBLoK
fiavx0oMdbdDe+Dkwv78xBkgbj//2lhMCVmss90RzY+d0d0rg2SP8y/DsyxwriqC
fuM7lnlgvSHCYwoX8+uDM7zI53ykKVhqI3ttyFPa8RsjfFOIWqf39++sJUheW4j9
x9rutf6qgtjxOYPQwDygT9cIVpM7ZehhqVYlcQZRsprMg55s2SN/a78krAW51mso
IDgd9+zbsIvzuGqCspO3AN8b2m8tlHTlA/E4+3OZkSqgpx8FSKIfbKUa866pRzpt
vcbL/wpFxYkyxqcB6o7CFnWbr3gUPpz8KjuY7ypMmwIDAQABo38wfTAdBgNVHQ4E
FgQUSkR/B71idJmR8deZziBAqSzWzhMwDAYDVR0TAQH/BAIwADAfBgNVHSMEGDAW
gBQgeiHe6K27Aqj7cVikCWK52FgFojAOBgNVHQ8BAf8EBAMCBeAwHQYDVR0lBBYw
FAYIKwYBBQUHAwIGCCsGAQUFBwMEMA0GCSqGSIb3DQEBCwUAA4ICAQA+pQuI1QmZ
LdheCVmc+k1h53uIv9pBnBKSbKn0/CVznmlPOpJIwwuzcLfCesa6gkG6BabHJwMr
U/SpZuWurHxdEKe6fS/ngYnIjFI5R0Kgl1czqq/tXDjGEpv2x0tZECqLFrkC7a+g
jXJPE8TDj8nvi40pcKFvv2tbRiyYrIPIxefrXmkT91F3zUKbQL0iW7Aot/0Klj+i
4uivqFu359OymJ2C5wJOyZqPPsxUvTdA2EZNX4BseFvJREmvx1CAgZkANZD4Qzn1
b/0WrXfYsbWA4cBeTRR7vjGajBc/oGo2wki0dJksImU8b2dLEf3n3M9dfxiFEAnl
3YKDmT21wamO/hRdWklT+7Ivz6SFnW6HneT42IMNkC4k3d0i0Y2/q7XN5rvMFbH1
n6O4NUqHIkzbCtVljV6+XESmMseyJGKlY6RD7jnhEJq6dGPGSr5h6SAohYljs5Y1
e/Dyg243sP75ZO7HfOYPd2Sp+p5R5szWOuZp5UtLFBhuwlI41LnpuL+4t25LjNHo
GhzZCl1rxqcSBGVKLG2sN0XVXfqrt/EykOAV0WW+S72tRPI73eq0AeRJRRfzcZie
qui694eP10Ehh/iiOpQ28yfhsWDvMIxu8o8oK+hpgQvCwecP7rupdqM9OQYnePb5
3dd8Tt4hw4WhvSWC/9aNfFXc3jwbHVy5Rw==
-----END CERTIFICATE-----
