Certificate:
    Data:
        Version: 3 (0x2)
        Serial Number:
            32:4d:41:38:af:02:c1:3c
        Signature Algorithm: sha256WithRSAEncryption
        Issuer: CN=DSS Root CA 10, OU=Testing, O=SignServer, C=SE
        Validity
            Not Before: May 27 08:14:27 2011 GMT
            Not After : May 27 08:14:27 2036 GMT
        Subject: CN=DSS Root CA 10, OU=Testing, O=SignServer, C=SE
        Subject Public Key Info:
            Public Key Algorithm: rsaEncryption
            RSA Public Key: (4096 bit)
                Modulus (4096 bit):
                    00:81:b9:60:8d:34:e4:32:9d:50:02:18:16:0e:9a:
                    e1:be:a1:3d:cd:7d:54:c7:f0:3f:45:33:ae:e0:6e:
                    1f:e8:24:e4:77:a2:44:12:46:dd:29:9b:fe:08:ab:
                    f8:71:1a:15:0a:d7:ce:df:09:ce:a2:41:51:c3:fd:
                    49:32:61:c7:89:0d:59:ff:fb:83:a0:38:e8:f2:39:
                    3c:9d:e9:34:02:b1:44:f5:1e:4d:4f:4d:b0:30:90:
                    90:6b:f9:8f:d7:05:3d:65:29:75:b7:1d:e3:41:15:
                    05:07:ea:d3:35:e0:9c:3d:37:ed:fb:51:4b:ed:48:
                    d8:31:d9:11:ce:5d:ba:d4:83:a5:99:7c:c3:30:0f:
                    84:60:81:89:d9:cd:b0:62:13:af:d8:3a:9f:43:28:
                    0d:cf:91:8e:7f:41:05:aa:54:19:22:df:e9:ce:8a:
                    52:4b:ed:0a:f2:63:5b:e7:74:4e:86:0f:46:26:e8:
                    f0:ce:e8:12:1f:96:7e:af:47:ec:54:76:c2:57:44:
                    14:91:90:5f:91:1a:3d:28:c7:1d:68:31:0f:6b:cc:
                    69:61:38:ec:14:fa:94:e9:17:27:1a:45:40:06:19:
                    fc:39:2f:12:21:6c:36:ad:ed:5f:fa:1b:63:ea:9f:
                    44:19:b9:35:9b:42:3d:a5:61:81:03:d9:2d:5a:7a:
                    ea:96:a0:d7:57:eb:44:86:18:75:3b:87:fe:2c:78:
                    9e:a3:18:ac:72:b1:7b:45:7c:65:62:ac:9a:9b:aa:
                    1a:6d:f5:ec:5f:75:40:0b:43:35:52:4c:08:72:21:
                    3c:c0:0d:52:8f:ff:9d:82:84:8c:aa:f1:03:34:37:
                    f0:a4:46:2d:ea:5f:19:f1:cc:c3:4d:60:e2:ec:c3:
                    36:bb:95:58:d2:73:f7:f8:0f:8f:7a:92:ab:3a:da:
                    dd:68:64:8f:df:de:9f:e1:ae:c0:de:e9:f5:a3:a9:
                    d0:58:7b:32:59:0e:e4:73:c1:88:9f:cc:cd:e6:7c:
                    a4:41:a8:21:1b:26:25:1c:76:1e:d5:75:12:3e:d1:
                    e6:c6:36:dd:b3:2c:ed:ae:42:22:b3:77:1f:8c:59:
                    de:d1:78:0f:02:24:2e:63:1d:d3:fc:1f:a9:a3:d0:
                    61:18:85:30:09:5d:10:8b:f8:16:54:de:8d:93:27:
                    6c:6f:33:1e:45:71:0b:41:8c:8a:fa:51:e0:20:68:
                    84:68:1c:d0:45:1b:57:6e:70:7e:c1:05:e2:d8:86:
                    9c:24:d7:4a:a8:80:b0:0e:c9:7f:3e:fb:dc:64:8f:
                    59:57:aa:41:fc:a2:33:07:ef:08:26:6d:02:2d:8d:
                    b8:2b:43:97:26:cd:c1:aa:28:fc:82:6a:6f:6c:8f:
                    a8:d3:05
                Exponent: 65537 (0x10001)
        X509v3 extensions:
            X509v3 Subject Key Identifier: 
                20:7A:21:DE:E8:AD:BB:02:A8:FB:71:58:A4:09:62:B9:D8:58:05:A2
            X509v3 Basic Constraints: critical
                CA:TRUE
            X509v3 Authority Key Identifier: 
                keyid:20:7A:21:DE:E8:AD:BB:02:A8:FB:71:58:A4:09:62:B9:D8:58:05:A2

            X509v3 Key Usage: critical
                Digital Signature, Certificate Sign, CRL Sign
    Signature Algorithm: sha256WithRSAEncryption
        31:16:fa:4e:64:5e:8a:a2:5e:3c:71:07:8a:59:0e:3c:54:07:
        be:87:97:66:c8:a3:1f:0c:b0:d9:5f:9d:48:47:37:ca:2a:c1:
        cb:a4:53:f1:cc:63:70:e2:df:54:bf:86:0e:47:40:83:f7:3f:
        35:75:1f:9c:f7:7b:75:97:0c:08:a4:a6:f1:f5:09:aa:f2:35:
        62:1c:41:ca:60:3f:45:5d:38:4c:f9:c5:69:b1:3d:b9:a6:0d:
        f9:9b:73:8d:79:45:ff:6f:ef:a5:d9:df:b6:40:d3:53:58:cb:
        dd:b0:2b:5a:41:dc:9b:66:a6:d8:14:89:34:22:33:f0:2c:ba:
        9d:b0:0f:08:a3:ad:24:b8:44:b8:26:74:1a:84:f7:4b:91:f9:
        bb:d2:b8:00:76:64:43:a3:33:9f:48:36:9a:58:76:36:d0:3a:
        2f:91:fb:ca:51:88:cf:47:a3:06:00:f0:f9:c3:d7:44:6f:8c:
        29:fd:98:c0:4d:b9:72:66:71:fe:2d:37:e5:c1:f7:ed:50:0a:
        27:98:0c:38:e8:4d:19:82:0d:78:de:c3:ba:45:f3:8e:9d:bc:
        23:5c:47:3e:29:77:7f:29:0e:a4:4d:0e:7a:d2:69:72:45:de:
        aa:ec:42:03:61:17:c3:e2:7e:1a:80:a5:76:47:98:2f:54:f8:
        4c:0f:4f:88:2b:b9:1a:82:a2:8d:7d:66:bd:cf:c5:1e:d8:dd:
        cc:79:dc:96:9d:bf:70:bf:8c:02:eb:da:85:9d:d1:9a:21:f6:
        00:0e:45:32:92:83:b2:2e:c5:55:b5:e2:7b:d0:f5:49:3d:73:
        bb:b3:ae:8b:b9:c7:c3:d9:1d:30:a3:63:29:b8:e6:02:b1:33:
        a6:ec:71:d2:fa:e6:7d:56:31:e5:da:a4:34:65:01:bc:f5:79:
        fe:01:79:f3:3d:b9:35:20:d7:b6:cf:49:6a:de:1c:c2:5b:90:
        d3:60:12:ac:24:47:b1:12:bc:cc:a4:bc:22:12:a5:18:25:47:
        d1:f4:47:82:33:c5:0f:32:d2:d2:ab:3d:6e:b5:d3:e8:21:88:
        54:2c:6c:ed:e6:54:89:12:93:07:31:ba:ae:61:f5:89:c5:08:
        8a:09:bb:df:c5:0b:0f:e5:d2:d4:30:42:2a:4e:08:cd:76:8f:
        7c:3a:53:3b:67:bc:e3:60:7f:4a:8a:6c:f7:c2:00:0a:48:02:
        28:41:9a:fb:3b:2d:5d:30:73:b9:18:ae:23:06:d6:7c:c2:0b:
        32:c9:0e:83:cd:04:3b:47:af:17:15:52:9a:ac:85:bc:48:04:
        de:ca:e6:c0:3f:e5:a3:74:cc:24:fd:95:f3:b0:38:cc:64:4b:
        44:35:a0:57:cc:07:9f:60
-----BEGIN CERTIFICATE-----
MIIFfzCCA2egAwIBAgIIMk1BOK8CwTwwDQYJKoZIhvcNAQELBQAwTTEXMBUGA1UE
AwwORFNTIFJvb3QgQ0EgMTAxEDAOBgNVBAsMB1Rlc3RpbmcxEzARBgNVBAoMClNp
Z25TZXJ2ZXIxCzAJBgNVBAYTAlNFMB4XDTExMDUyNzA4MTQyN1oXDTM2MDUyNzA4
MTQyN1owTTEXMBUGA1UEAwwORFNTIFJvb3QgQ0EgMTAxEDAOBgNVBAsMB1Rlc3Rp
bmcxEzARBgNVBAoMClNpZ25TZXJ2ZXIxCzAJBgNVBAYTAlNFMIICIjANBgkqhkiG
9w0BAQEFAAOCAg8AMIICCgKCAgEAgblgjTTkMp1QAhgWDprhvqE9zX1Ux/A/RTOu
4G4f6CTkd6JEEkbdKZv+CKv4cRoVCtfO3wnOokFRw/1JMmHHiQ1Z//uDoDjo8jk8
nek0ArFE9R5NT02wMJCQa/mP1wU9ZSl1tx3jQRUFB+rTNeCcPTft+1FL7UjYMdkR
zl261IOlmXzDMA+EYIGJ2c2wYhOv2DqfQygNz5GOf0EFqlQZIt/pzopSS+0K8mNb
53ROhg9GJujwzugSH5Z+r0fsVHbCV0QUkZBfkRo9KMcdaDEPa8xpYTjsFPqU6Rcn
GkVABhn8OS8SIWw2re1f+htj6p9EGbk1m0I9pWGBA9ktWnrqlqDXV+tEhhh1O4f+
LHieoxiscrF7RXxlYqyam6oabfXsX3VAC0M1UkwIciE8wA1Sj/+dgoSMqvEDNDfw
pEYt6l8Z8czDTWDi7MM2u5VY0nP3+A+PepKrOtrdaGSP396f4a7A3un1o6nQWHsy
WQ7kc8GIn8zN5nykQaghGyYlHHYe1XUSPtHmxjbdsyztrkIis3cfjFne0XgPAiQu
Yx3T/B+po9BhGIUwCV0Qi/gWVN6NkydsbzMeRXELQYyK+lHgIGiEaBzQRRtXbnB+
wQXi2IacJNdKqICwDsl/PvvcZI9ZV6pB/KIzB+8IJm0CLY24K0OXJs3Bqij8gmpv
bI+o0wUCAwEAAaNjMGEwHQYDVR0OBBYEFCB6Id7orbsCqPtxWKQJYrnYWAWiMA8G
A1UdEwEB/wQFMAMBAf8wHwYDVR0jBBgwFoAUIHoh3uituwKo+3FYpAliudhYBaIw
DgYDVR0PAQH/BAQDAgGGMA0GCSqGSIb3DQEBCwUAA4ICAQAxFvpOZF6Kol48cQeK
WQ48VAe+h5dmyKMfDLDZX51IRzfKKsHLpFPxzGNw4t9Uv4YOR0CD9z81dR+c93t1
lwwIpKbx9Qmq8jViHEHKYD9FXThM+cVpsT25pg35m3ONeUX/b++l2d+2QNNTWMvd
sCtaQdybZqbYFIk0IjPwLLqdsA8Io60kuES4JnQahPdLkfm70rgAdmRDozOfSDaa
WHY20DovkfvKUYjPR6MGAPD5w9dEb4wp/ZjATblyZnH+LTflwfftUAonmAw46E0Z
gg143sO6RfOOnbwjXEc+KXd/KQ6kTQ560mlyRd6q7EIDYRfD4n4agKV2R5gvVPhM
D0+IK7kagqKNfWa9z8Ue2N3MedyWnb9wv4wC69qFndGaIfYADkUykoOyLsVVteJ7
0PVJPXO7s66LucfD2R0wo2MpuOYCsTOm7HHS+uZ9VjHl2qQ0ZQG89Xn+AXnzPbk1
INe2z0lq3hzCW5DTYBKsJEexErzMpLwiEqUYJUfR9EeCM8UPMtLSqz1utdPoIYhU
LGzt5lSJEpMHMbquYfWJxQiKCbvfxQsP5dLUMEIqTgjNdo98OlM7Z7zjYH9Kimz3
wgAKSAIoQZr7Oy1dMHO5GK4jBtZ8wgsyyQ6DzQQ7R68XFVKarIW8SATeyubAP+Wj
dMwk/ZXzsDjMZEtENaBXzAefYA==
-----END CERTIFICATE-----
