Certificate:
    Data:
        Version: 3 (0x2)
        Serial Number:
            44:80:6c:0c:5b:4d:c0:75
        Signature Algorithm: sha256WithRSAEncryption
        Issuer: CN=DSS Root CA 10, OU=Testing, O=SignServer, C=SE
        Validity
            Not Before: May 27 09:50:57 2011 GMT
            Not After : May 27 09:50:57 2021 GMT
        Subject: CN=Signer 3, OU=Testing, O=SignServer, C=SE
        Subject Public Key Info:
            Public Key Algorithm: rsaEncryption
            RSA Public Key: (1024 bit)
                Modulus (1024 bit):
                    00:9b:7c:17:9d:70:0f:e4:1c:5f:e5:8b:c8:8c:63:
                    5a:ed:da:b7:7a:be:22:22:6b:2f:98:c8:7a:79:a0:
                    81:48:63:38:b1:c6:1c:e4:ad:a0:d3:a2:60:44:00:
                    6a:28:93:67:ad:b7:9b:dc:bb:3b:7c:e1:a8:57:40:
                    75:66:60:f8:9a:df:b0:74:09:a6:32:95:f5:18:2f:
                    27:39:e5:eb:29:3f:2b:9e:01:58:e0:60:aa:3b:db:
                    96:80:14:1a:d9:fc:cb:c1:df:fb:90:d8:25:42:4d:
                    16:aa:f3:bd:12:dc:98:24:3d:25:4d:07:9a:04:a6:
                    10:8a:a0:38:8c:01:2f:7a:01
                Exponent: 65537 (0x10001)
        X509v3 extensions:
            X509v3 Subject Key Identifier: 
                99:68:5E:DA:17:CA:51:B5:B8:1F:1C:BA:0A:1A:92:9B:19:4A:AA:B5
            X509v3 Basic Constraints: critical
                CA:FALSE
            X509v3 Authority Key Identifier: 
                keyid:20:7A:21:DE:E8:AD:BB:02:A8:FB:71:58:A4:09:62:B9:D8:58:05:A2

            X509v3 Key Usage: critical
                Digital Signature, Non Repudiation, Key Encipherment
            X509v3 Extended Key Usage: 
                TLS Web Client Authentication, E-mail Protection
    Signature Algorithm: sha256WithRSAEncryption
        4d:ce:5b:30:c5:33:df:ad:20:d9:e8:a9:de:ea:10:8d:2b:dc:
        97:05:30:f9:9d:eb:00:0e:82:dc:b7:b5:8a:a5:45:34:d7:6f:
        d2:ab:0b:e4:4c:5f:c7:0e:49:f5:79:d8:a7:a9:b3:9d:b7:ca:
        c3:10:c2:49:e7:f9:b9:b4:3f:43:d2:62:08:e5:09:eb:9b:1a:
        f2:c4:24:11:7b:03:7d:99:50:83:41:fc:7d:9b:64:77:81:79:
        f8:5b:ef:92:c9:a3:c4:13:81:c0:eb:8f:8a:d9:2b:0e:cb:c7:
        15:b9:a1:9b:cd:c0:5b:85:63:2e:8a:6a:35:56:17:f6:1a:08:
        60:2b:29:b4:a0:fc:88:9b:38:64:76:66:70:8d:1e:1a:97:91:
        83:f3:76:b8:de:c5:67:76:28:47:e6:e7:03:c9:ba:cf:5b:31:
        da:3d:98:b6:18:5b:88:24:62:8c:03:99:6e:7e:c2:cf:bb:44:
        2d:b0:db:ab:67:eb:87:95:2e:9e:38:a0:de:0d:5a:ae:d3:b6:
        b8:78:a5:05:54:a9:48:be:f5:d9:f2:78:cf:4e:d4:8e:a2:d5:
        c6:e4:65:65:52:43:61:4f:b6:89:d9:db:42:39:df:cc:82:fc:
        1b:75:4f:9d:65:88:34:08:8d:1a:47:73:f2:ef:3d:78:81:66:
        13:30:67:32:82:a4:23:7a:ac:fe:c1:48:87:48:c4:0d:45:b3:
        02:0c:d2:5f:97:0c:1b:76:87:b3:b4:bb:55:4e:7d:e6:4c:20:
        1e:2d:f9:d5:6d:18:9f:f0:b0:23:b4:5f:2c:5c:d0:97:16:b6:
        78:4b:31:fb:ee:b6:39:23:ae:0b:ed:66:93:43:0d:65:93:d8:
        6c:71:6d:40:c0:d6:69:3f:01:d6:18:48:ad:3c:17:6e:a1:57:
        75:a7:91:ca:ea:a6:21:d1:1e:d5:a6:4d:5d:d4:d5:b5:81:39:
        de:c9:d8:89:59:c4:13:12:fb:4d:8c:f9:c5:12:ec:14:84:e3:
        41:fb:49:80:85:b3:d9:e4:d5:1f:6e:3b:23:13:da:15:b8:ea:
        76:98:34:13:18:e0:1b:25:a9:75:4f:f5:49:02:49:c8:57:50:
        c7:6c:ec:aa:92:cd:f9:b6:1e:56:ad:09:d2:b1:a7:4f:16:a9:
        4c:f5:fc:8d:19:b5:a0:b9:59:03:d6:ab:f9:17:f8:01:fe:63:
        01:64:4c:65:2b:2e:7e:d7:80:a0:86:26:47:6a:28:00:76:a9:
        58:c8:78:f8:39:74:31:8e:f9:81:04:e2:be:3c:03:10:10:e2:
        18:e7:22:a6:4f:38:9a:35:da:d8:96:75:58:d3:70:93:9b:8a:
        fa:83:e7:67:b3:cf:7f:6c
-----BEGIN CERTIFICATE-----
MIIEETCCAfmgAwIBAgIIRIBsDFtNwHUwDQYJKoZIhvcNAQELBQAwTTEXMBUGA1UE
AwwORFNTIFJvb3QgQ0EgMTAxEDAOBgNVBAsMB1Rlc3RpbmcxEzARBgNVBAoMClNp
Z25TZXJ2ZXIxCzAJBgNVBAYTAlNFMB4XDTExMDUyNzA5NTA1N1oXDTIxMDUyNzA5
NTA1N1owRzERMA8GA1UEAwwIU2lnbmVyIDMxEDAOBgNVBAsMB1Rlc3RpbmcxEzAR
BgNVBAoMClNpZ25TZXJ2ZXIxCzAJBgNVBAYTAlNFMIGfMA0GCSqGSIb3DQEBAQUA
A4GNADCBiQKBgQCbfBedcA/kHF/li8iMY1rt2rd6viIiay+YyHp5oIFIYzixxhzk
raDTomBEAGook2ett5vcuzt84ahXQHVmYPia37B0CaYylfUYLyc55espPyueAVjg
YKo725aAFBrZ/MvB3/uQ2CVCTRaq870S3JgkPSVNB5oEphCKoDiMAS96AQIDAQAB
o38wfTAdBgNVHQ4EFgQUmWhe2hfKUbW4Hxy6ChqSmxlKqrUwDAYDVR0TAQH/BAIw
ADAfBgNVHSMEGDAWgBQgeiHe6K27Aqj7cVikCWK52FgFojAOBgNVHQ8BAf8EBAMC
BeAwHQYDVR0lBBYwFAYIKwYBBQUHAwIGCCsGAQUFBwMEMA0GCSqGSIb3DQEBCwUA
A4ICAQBNzlswxTPfrSDZ6Kne6hCNK9yXBTD5nesADoLct7WKpUU012/SqwvkTF/H
Dkn1edinqbOdt8rDEMJJ5/m5tD9D0mII5QnrmxryxCQRewN9mVCDQfx9m2R3gXn4
W++SyaPEE4HA64+K2SsOy8cVuaGbzcBbhWMuimo1Vhf2GghgKym0oPyImzhkdmZw
jR4al5GD83a43sVndihH5ucDybrPWzHaPZi2GFuIJGKMA5lufsLPu0QtsNurZ+uH
lS6eOKDeDVqu07a4eKUFVKlIvvXZ8njPTtSOotXG5GVlUkNhT7aJ2dtCOd/Mgvwb
dU+dZYg0CI0aR3Py7z14gWYTMGcygqQjeqz+wUiHSMQNRbMCDNJflwwbdoeztLtV
Tn3mTCAeLfnVbRif8LAjtF8sXNCXFrZ4SzH77rY5I64L7WaTQw1lk9hscW1AwNZp
PwHWGEitPBduoVd1p5HK6qYh0R7Vpk1d1NW1gTneydiJWcQTEvtNjPnFEuwUhONB
+0mAhbPZ5NUfbjsjE9oVuOp2mDQTGOAbJal1T/VJAknIV1DHbOyqks35th5WrQnS
sadPFqlM9fyNGbWguVkD1qv5F/gB/mMBZExlKy5+14CghiZHaigAdqlYyHj4OXQx
jvmBBOK+PAMQEOIY5yKmTziaNdrYlnVY03CTm4r6g+dns89/bA==
-----END CERTIFICATE-----
