Certificate:
    Data:
        Version: 3 (0x2)
        Serial Number:
            1d:9f:a8:b7:1c:75:b5:64
        Signature Algorithm: sha256WithRSAEncryption
        Issuer: CN=DSS Root CA 10, OU=Testing, O=SignServer, C=SE
        Validity
            Not Before: May 27 08:24:53 2011 GMT
            Not After : May 26 08:24:53 2013 GMT
        Subject: CN=Signer 1, OU=Testing, O=SignServer, C=SE
        Subject Public Key Info:
            Public Key Algorithm: rsaEncryption
            RSA Public Key: (2048 bit)
                Modulus (2048 bit):
                    00:8f:ae:fa:48:2d:77:cf:64:1f:cc:85:b5:a9:0c:
                    fd:49:12:a4:09:fd:83:f0:5c:16:a2:cb:c7:36:4e:
                    38:49:10:eb:13:13:13:9c:95:a7:88:3e:02:ce:56:
                    70:50:d2:db:e2:ae:cd:71:0b:d9:ff:da:aa:8e:9b:
                    c7:16:2d:9b:55:ab:5e:af:e8:a2:65:fd:94:35:3e:
                    4e:04:6c:28:06:db:b9:95:e0:85:21:72:21:0a:ee:
                    7a:70:8c:10:2d:a6:cc:56:56:11:13:64:04:79:ba:
                    de:11:49:8c:88:ac:94:77:3d:39:25:30:29:76:19:
                    1e:2b:f7:67:b3:1b:26:1f:a5:20:cd:41:bf:d0:ed:
                    16:50:6f:99:a5:a7:7d:68:aa:5f:70:9f:01:ed:81:
                    f7:1e:37:c9:28:7d:2e:63:a3:3f:40:b2:2b:17:fb:
                    7e:8d:ca:5c:4a:07:60:1f:91:b7:bf:f8:d3:86:18:
                    b8:da:93:55:84:98:86:e9:f2:5d:3a:5f:67:be:3f:
                    f9:df:4d:75:8a:6e:ea:0e:54:17:ca:31:7c:4a:f9:
                    1e:97:68:c3:40:17:ed:ed:15:9f:36:50:8c:b0:b2:
                    6a:86:7d:6d:ee:b8:94:25:c0:86:cd:3e:4e:b4:d5:
                    8e:ce:84:b4:f0:d6:75:1c:07:03:51:b3:15:fd:48:
                    69:89
                Exponent: 65537 (0x10001)
        X509v3 extensions:
            X509v3 Subject Key Identifier: 
                7E:EF:58:FD:D3:91:C1:66:1E:C2:DD:E6:01:69:C3:83:48:A8:87:8A
            X509v3 Basic Constraints: critical
                CA:FALSE
            X509v3 Authority Key Identifier: 
                keyid:20:7A:21:DE:E8:AD:BB:02:A8:FB:71:58:A4:09:62:B9:D8:58:05:A2

            X509v3 Key Usage: critical
                Digital Signature, Non Repudiation, Key Encipherment
            X509v3 Extended Key Usage: 
                TLS Web Client Authentication, E-mail Protection
    Signature Algorithm: sha256WithRSAEncryption
        14:00:ff:65:7d:57:44:f2:22:66:b4:5a:86:8f:08:f4:39:b2:
        1d:30:f4:57:21:38:85:38:9e:24:95:12:85:15:d6:04:c8:91:
        7a:c9:3e:9d:66:7a:f6:33:43:9e:46:56:44:8a:10:3a:a0:d1:
        f6:06:8b:16:a5:8d:cc:f6:0d:92:16:83:9c:aa:e3:b1:9f:70:
        87:cf:53:6d:9e:c4:0e:e0:6f:9b:ac:69:9b:91:be:53:42:9b:
        c3:6c:02:ce:89:e3:6a:37:ee:18:f2:91:c6:98:30:14:cf:fe:
        28:c3:c4:45:51:c2:74:08:d2:29:cc:4c:a5:10:dc:1e:34:ec:
        be:6c:50:78:a5:60:f1:6c:e6:34:90:57:87:d4:44:47:33:6b:
        3a:82:03:b5:d3:34:b5:08:98:01:49:b3:b3:33:c5:8d:2a:3c:
        7d:1c:fd:66:ea:96:c3:62:9b:f4:2f:8a:dd:d5:54:37:cb:ae:
        f4:82:8b:ce:61:fa:0d:48:67:a8:a4:fe:fc:c4:b5:08:b4:0a:
        6f:0f:39:80:f6:aa:b0:1a:2e:01:b1:96:3c:c3:60:65:66:e4:
        89:f7:3e:5a:e2:2e:dc:dd:33:a6:e9:65:0d:a0:7e:09:b0:b2:
        7c:9a:c8:e1:f0:39:5a:8f:72:89:1f:23:59:b5:bc:46:45:92:
        6e:d6:7e:6c:13:50:9a:26:08:af:30:11:2d:26:0d:01:9d:e9:
        a6:74:bb:1b:c6:38:f6:49:36:55:09:20:7b:d2:87:74:e4:7a:
        70:4b:30:26:9e:32:03:be:e0:84:ce:42:24:e4:47:77:5e:a4:
        1c:7f:71:a4:09:70:d8:70:f4:94:c0:0f:8b:d8:01:ea:9a:a6:
        e5:00:bb:7f:b4:d1:b4:d9:9c:6d:8a:ac:ec:66:a0:d2:a7:05:
        7b:77:5e:e6:8d:38:a7:5f:01:a1:13:52:c7:40:3f:ba:ad:14:
        92:5e:29:c3:f0:26:0f:7b:dd:2b:11:dd:a0:9b:4d:78:dc:88:
        b7:a6:60:52:5c:8e:6a:27:13:e8:38:72:87:a2:44:a5:3b:03:
        ed:2d:52:8f:e5:cf:c4:25:75:dc:9e:75:8c:78:ae:c6:34:64:
        af:3b:1d:01:44:aa:2b:d7:6e:12:f6:a7:05:5e:1f:21:da:b7:
        5a:46:eb:24:df:ae:28:0f:c8:53:e0:c8:4b:93:b4:79:0e:ac:
        5f:c5:a6:bc:f8:5f:de:d7:90:83:c1:09:92:33:10:b4:55:c8:
        5f:98:66:e3:d4:c3:76:30:23:6a:27:44:a6:25:cb:21:73:4b:
        44:ed:d6:19:0e:ed:8e:6b:c6:98:ba:ed:b7:20:b7:fc:8c:8c:
        6c:88:91:50:72:cc:70:1e
-----BEGIN CERTIFICATE-----
MIIElTCCAn2gAwIBAgIIHZ+otxx1tWQwDQYJKoZIhvcNAQELBQAwTTEXMBUGA1UE
AwwORFNTIFJvb3QgQ0EgMTAxEDAOBgNVBAsMB1Rlc3RpbmcxEzARBgNVBAoMClNp
Z25TZXJ2ZXIxCzAJBgNVBAYTAlNFMB4XDTExMDUyNzA4MjQ1M1oXDTEzMDUyNjA4
MjQ1M1owRzERMA8GA1UEAwwIU2lnbmVyIDExEDAOBgNVBAsMB1Rlc3RpbmcxEzAR
BgNVBAoMClNpZ25TZXJ2ZXIxCzAJBgNVBAYTAlNFMIIBIjANBgkqhkiG9w0BAQEF
AAOCAQ8AMIIBCgKCAQEAj676SC13z2QfzIW1qQz9SRKkCf2D8FwWosvHNk44SRDr
ExMTnJWniD4CzlZwUNLb4q7NcQvZ/9qqjpvHFi2bVater+iiZf2UNT5OBGwoBtu5
leCFIXIhCu56cIwQLabMVlYRE2QEebreEUmMiKyUdz05JTApdhkeK/dnsxsmH6Ug
zUG/0O0WUG+Zpad9aKpfcJ8B7YH3HjfJKH0uY6M/QLIrF/t+jcpcSgdgH5G3v/jT
hhi42pNVhJiG6fJdOl9nvj/53011im7qDlQXyjF8Svkel2jDQBft7RWfNlCMsLJq
hn1t7riUJcCGzT5OtNWOzoS08NZ1HAcDUbMV/UhpiQIDAQABo38wfTAdBgNVHQ4E
FgQUfu9Y/dORwWYewt3mAWnDg0ioh4owDAYDVR0TAQH/BAIwADAfBgNVHSMEGDAW
gBQgeiHe6K27Aqj7cVikCWK52FgFojAOBgNVHQ8BAf8EBAMCBeAwHQYDVR0lBBYw
FAYIKwYBBQUHAwIGCCsGAQUFBwMEMA0GCSqGSIb3DQEBCwUAA4ICAQAUAP9lfVdE
8iJmtFqGjwj0ObIdMPRXITiFOJ4klRKFFdYEyJF6yT6dZnr2M0OeRlZEihA6oNH2
BosWpY3M9g2SFoOcquOxn3CHz1NtnsQO4G+brGmbkb5TQpvDbALOieNqN+4Y8pHG
mDAUz/4ow8RFUcJ0CNIpzEylENweNOy+bFB4pWDxbOY0kFeH1ERHM2s6ggO10zS1
CJgBSbOzM8WNKjx9HP1m6pbDYpv0L4rd1VQ3y670govOYfoNSGeopP78xLUItApv
DzmA9qqwGi4BsZY8w2BlZuSJ9z5a4i7c3TOm6WUNoH4JsLJ8msjh8Dlaj3KJHyNZ
tbxGRZJu1n5sE1CaJgivMBEtJg0BnemmdLsbxjj2STZVCSB70od05HpwSzAmnjID
vuCEzkIk5Ed3XqQcf3GkCXDYcPSUwA+L2AHqmqblALt/tNG02ZxtiqzsZqDSpwV7
d17mjTinXwGhE1LHQD+6rRSSXinD8CYPe90rEd2gm0143Ii3pmBSXI5qJxPoOHKH
okSlOwPtLVKP5c/EJXXcnnWMeK7GNGSvOx0BRKor124S9qcFXh8h2rdaRusk364o
D8hT4MhLk7R5Dqxfxaa8+F/e15CDwQmSMxC0VchfmGbj1MN2MCNqJ0SmJcshc0tE
7dYZDu2Oa8aYuu23ILf8jIxsiJFQcsxwHg==
-----END CERTIFICATE-----
